target datalayout = "e-m:e-p270:32:32-p271:32:32-p272:64:64-i64:64-i128:128-f80:128-n8:16:32:64-S128"
target triple = "x86_64-pc-linux-gnu"

%"class.std::__cxx11::basic_string" = type { %"struct.std::__cxx11::basic_string<char>::_Alloc_hider", i64, %union.anon }
%"struct.std::__cxx11::basic_string<char>::_Alloc_hider" = type { ptr }
%union.anon = type { i64, [8 x i8] }
%"struct.gmx::EnumerationArray" = type { [9 x i8] }
%struct.t_pull_coord = type { i32, %"class.std::__cxx11::basic_string", i32, %"class.std::__cxx11::basic_string", double, i32, %"struct.std::array", %"class.gmx::BasicVector.21", %"class.gmx::BasicVector.22", %"class.gmx::BasicVector.22", i8, float, float, float, float, i32 }
%"struct.std::array" = type { [6 x i32] }
%"class.gmx::BasicVector.21" = type { [3 x i32] }
%"class.gmx::BasicVector.22" = type { [3 x float] }
%"class.std::filesystem::__cxx11::path" = type { %"class.std::__cxx11::basic_string", %"struct.std::filesystem::__cxx11::path::_List" }
%"struct.std::filesystem::__cxx11::path::_List" = type { %"class.std::unique_ptr.69" }
%"class.std::unique_ptr.69" = type { %"struct.std::__uniq_ptr_data.70" }
%"struct.std::__uniq_ptr_data.70" = type { %"class.std::__uniq_ptr_impl.71" }
%"class.std::__uniq_ptr_impl.71" = type { %"class.std::tuple.72" }
%"class.std::tuple.72" = type { %"struct.std::_Tuple_impl.73" }
%"struct.std::_Tuple_impl.73" = type { %"struct.std::_Head_base.76" }
%"struct.std::_Head_base.76" = type { ptr }

@_ZL14sc_isAngleType = internal constant %"struct.gmx::EnumerationArray" { [9 x i8] c"\00\00\00\00\00\01\01\01\00" }, align 1
@.str.9 = private unnamed_addr constant [122 x i8] c"generated/home/dtcxzyw/WorkSpace/Projects/compilers/llvm-opt-benchmark/bench/gromacs/gromacs/src/gromacs/pulling/pull.cpp\00", align 1
@.str.32 = private unnamed_addr constant [72 x i8] c"Pull reference distance for coordinate %d (%f) needs to be non-negative\00", align 1
@.str.33 = private unnamed_addr constant [92 x i8] c"Pull reference angle for coordinate %d (%f) needs to be in the allowed interval [0,180] deg\00", align 1

; Function Attrs: mustprogress nounwind uwtable
define linkonce_odr noundef nonnull align 1 dereferenceable(1) ptr @_ZNK3gmx16EnumerationArrayI17PullGroupGeometrybLS1_9EEixES1_(ptr noundef nonnull align 1 dereferenceable(9) %0, i32 noundef %1) #5 comdat align 2 {
  %3 = alloca ptr, align 8
  %4 = alloca i32, align 4
  store ptr %0, ptr %3, align 8, !tbaa !196
  store i32 %1, ptr %4, align 4, !tbaa !198
  %5 = load ptr, ptr %3, align 8
  %6 = getelementptr inbounds nuw %"struct.gmx::EnumerationArray", ptr %5, i32 0, i32 0
  %7 = load i32, ptr %4, align 4, !tbaa !198
  %8 = sext i32 %7 to i64
  %9 = getelementptr inbounds nuw [9 x i8], ptr %6, i64 0, i64 %8
  ret ptr %9
}

; Function Attrs: mustprogress nounwind uwtable
define internal void @_ZL17make_periodic_2piPd(ptr noundef %0) #5 {
  %2 = alloca ptr, align 8
  store ptr %0, ptr %2, align 8, !tbaa !182
  %3 = load ptr, ptr %2, align 8, !tbaa !182
  %4 = load double, ptr %3, align 8, !tbaa !93
  %5 = fcmp oge double %4, 0x400921FB54442D18
  br i1 %5, label %6, label %10

6:                                                ; preds = %1
  %7 = load ptr, ptr %2, align 8, !tbaa !182
  %8 = load double, ptr %7, align 8, !tbaa !93
  %9 = fsub double %8, 0x401921FB54442D18
  store double %9, ptr %7, align 8, !tbaa !93
  br label %19

10:                                               ; preds = %1
  %11 = load ptr, ptr %2, align 8, !tbaa !182
  %12 = load double, ptr %11, align 8, !tbaa !93
  %13 = fcmp olt double %12, 0xC00921FB54442D18
  br i1 %13, label %14, label %18

14:                                               ; preds = %10
  %15 = load ptr, ptr %2, align 8, !tbaa !182
  %16 = load double, ptr %15, align 8, !tbaa !93
  %17 = fadd double %16, 0x401921FB54442D18
  store double %17, ptr %15, align 8, !tbaa !93
  br label %18

18:                                               ; preds = %14, %10
  br label %19

19:                                               ; preds = %18, %6
  ret void
}

; Function Attrs: mustprogress nounwind uwtable
define noundef double @_Z41pull_conversion_factor_internal2userinputRK12t_pull_coord(ptr noundef nonnull align 8 dereferenceable(176) %0) #5 {
  %2 = alloca double, align 8
  %3 = alloca ptr, align 8
  store ptr %0, ptr %3, align 8, !tbaa !187
  %4 = load ptr, ptr %3, align 8, !tbaa !187
  %5 = getelementptr inbounds nuw %struct.t_pull_coord, ptr %4, i32 0, i32 2
  %6 = load i32, ptr %5, align 8, !tbaa !189
  %7 = call noundef nonnull align 1 dereferenceable(1) ptr @_ZNK3gmx16EnumerationArrayI17PullGroupGeometrybLS1_9EEixES1_(ptr noundef nonnull align 1 dereferenceable(9) @_ZL14sc_isAngleType, i32 noundef %6)
  %8 = load i8, ptr %7, align 1, !tbaa !36, !range !40, !noundef !41
  %9 = trunc i8 %8 to i1
  br i1 %9, label %10, label %11

10:                                               ; preds = %1
  store double 0x404CA5DC1A63C1F8, ptr %2, align 8
  br label %12

11:                                               ; preds = %1
  store double 1.000000e+00, ptr %2, align 8
  br label %12

12:                                               ; preds = %11, %10
  %13 = load double, ptr %2, align 8
  ret double %13
}

; Function Attrs: mustprogress uwtable
define internal noundef double @_ZL31sanitizePullCoordReferenceValueRK12t_pull_coordd(ptr noundef nonnull align 8 dereferenceable(176) %0, double noundef %1) #6 personality ptr @__gxx_personality_v0 {
  %3 = alloca ptr, align 8
  %4 = alloca double, align 8
  %5 = alloca %"class.std::filesystem::__cxx11::path", align 8
  %6 = alloca ptr, align 8
  %7 = alloca i32, align 4
  %8 = alloca %"class.std::filesystem::__cxx11::path", align 8
  store ptr %0, ptr %3, align 8, !tbaa !187
  store double %1, ptr %4, align 8, !tbaa !93
  %9 = load ptr, ptr %3, align 8, !tbaa !187
  %10 = getelementptr inbounds nuw %struct.t_pull_coord, ptr %9, i32 0, i32 2
  %11 = load i32, ptr %10, align 8, !tbaa !189
  %12 = icmp eq i32 %11, 0
  br i1 %12, label %13, label %28

13:                                               ; preds = %2
  %14 = load double, ptr %4, align 8, !tbaa !93
  %15 = fcmp olt double %14, 0.000000e+00
  br i1 %15, label %16, label %27

16:                                               ; preds = %13
  call void @llvm.lifetime.start.p0(i64 40, ptr %5) #3
  call void @_ZNSt10filesystem7__cxx114pathC2IA122_cS1_EERKT_NS1_6formatE(ptr noundef nonnull align 8 dereferenceable(40) %5, ptr noundef nonnull align 1 dereferenceable(122) @.str.9, i8 noundef zeroext 2)
  %17 = load ptr, ptr %3, align 8, !tbaa !187
  %18 = getelementptr inbounds nuw %struct.t_pull_coord, ptr %17, i32 0, i32 15
  %19 = load i32, ptr %18, align 4, !tbaa !406
  %20 = add nsw i32 %19, 1
  %21 = load double, ptr %4, align 8, !tbaa !93
  invoke void (i32, ptr, i32, ptr, ...) @_Z9gmx_fataliRKNSt10filesystem7__cxx114pathEiPKcz(i32 noundef 0, ptr noundef nonnull align 8 dereferenceable(40) %5, i32 noundef 661, ptr noundef @.str.32, i32 noundef %20, double noundef %21) #19
          to label %22 unwind label %23

22:                                               ; preds = %16
  unreachable

23:                                               ; preds = %16
  %24 = landingpad { ptr, i32 }
          cleanup
  %25 = extractvalue { ptr, i32 } %24, 0
  store ptr %25, ptr %6, align 8
  %26 = extractvalue { ptr, i32 } %24, 1
  store i32 %26, ptr %7, align 4
  call void @_ZNSt10filesystem7__cxx114pathD2Ev(ptr noundef nonnull align 8 dereferenceable(40) %5) #3
  call void @llvm.lifetime.end.p0(i64 40, ptr %5) #3
  br label %69

27:                                               ; preds = %13
  br label %67

28:                                               ; preds = %2
  %29 = load ptr, ptr %3, align 8, !tbaa !187
  %30 = getelementptr inbounds nuw %struct.t_pull_coord, ptr %29, i32 0, i32 2
  %31 = load i32, ptr %30, align 8, !tbaa !189
  %32 = icmp eq i32 %31, 5
  br i1 %32, label %38, label %33

33:                                               ; preds = %28
  %34 = load ptr, ptr %3, align 8, !tbaa !187
  %35 = getelementptr inbounds nuw %struct.t_pull_coord, ptr %34, i32 0, i32 2
  %36 = load i32, ptr %35, align 8, !tbaa !189
  %37 = icmp eq i32 %36, 7
  br i1 %37, label %38, label %59

38:                                               ; preds = %33, %28
  %39 = load double, ptr %4, align 8, !tbaa !93
  %40 = fcmp olt double %39, 0.000000e+00
  br i1 %40, label %44, label %41

41:                                               ; preds = %38
  %42 = load double, ptr %4, align 8, !tbaa !93
  %43 = fcmp ogt double %42, 0x400921FB54442D18
  br i1 %43, label %44, label %58

44:                                               ; preds = %41, %38
  call void @llvm.lifetime.start.p0(i64 40, ptr %8) #3
  call void @_ZNSt10filesystem7__cxx114pathC2IA122_cS1_EERKT_NS1_6formatE(ptr noundef nonnull align 8 dereferenceable(40) %8, ptr noundef nonnull align 1 dereferenceable(122) @.str.9, i8 noundef zeroext 2)
  %45 = load ptr, ptr %3, align 8, !tbaa !187
  %46 = getelementptr inbounds nuw %struct.t_pull_coord, ptr %45, i32 0, i32 15
  %47 = load i32, ptr %46, align 4, !tbaa !406
  %48 = add nsw i32 %47, 1
  %49 = load double, ptr %4, align 8, !tbaa !93
  %50 = load ptr, ptr %3, align 8, !tbaa !187
  %51 = call noundef double @_Z41pull_conversion_factor_internal2userinputRK12t_pull_coord(ptr noundef nonnull align 8 dereferenceable(176) %50)
  %52 = fmul double %49, %51
  invoke void (i32, ptr, i32, ptr, ...) @_Z9gmx_fataliRKNSt10filesystem7__cxx114pathEiPKcz(i32 noundef 0, ptr noundef nonnull align 8 dereferenceable(40) %8, i32 noundef 671, ptr noundef @.str.33, i32 noundef %48, double noundef %52) #19
          to label %53 unwind label %54

53:                                               ; preds = %44
  unreachable

54:                                               ; preds = %44
  %55 = landingpad { ptr, i32 }
          cleanup
  %56 = extractvalue { ptr, i32 } %55, 0
  store ptr %56, ptr %6, align 8
  %57 = extractvalue { ptr, i32 } %55, 1
  store i32 %57, ptr %7, align 4
  call void @_ZNSt10filesystem7__cxx114pathD2Ev(ptr noundef nonnull align 8 dereferenceable(40) %8) #3
  call void @llvm.lifetime.end.p0(i64 40, ptr %8) #3
  br label %69

58:                                               ; preds = %41
  br label %66

59:                                               ; preds = %33
  %60 = load ptr, ptr %3, align 8, !tbaa !187
  %61 = getelementptr inbounds nuw %struct.t_pull_coord, ptr %60, i32 0, i32 2
  %62 = load i32, ptr %61, align 8, !tbaa !189
  %63 = icmp eq i32 %62, 6
  br i1 %63, label %64, label %65

64:                                               ; preds = %59
  call void @_ZL17make_periodic_2piPd(ptr noundef %4)
  br label %65

65:                                               ; preds = %64, %59
  br label %66

66:                                               ; preds = %65, %58
  br label %67

67:                                               ; preds = %66, %27
  %68 = load double, ptr %4, align 8, !tbaa !93
  ret double %68

69:                                               ; preds = %54, %23
  %70 = load ptr, ptr %6, align 8
  %71 = load i32, ptr %7, align 4
  %72 = insertvalue { ptr, i32 } poison, ptr %70, 0
  %73 = insertvalue { ptr, i32 } %72, i32 %71, 1
  resume { ptr, i32 } %73
}