; Function Attrs: mustprogress uwtable
define internal fastcc noundef double @_ZL31sanitizePullCoordReferenceValueRK12t_pull_coordd(ptr noundef nonnull readonly align 8 captures(none) dereferenceable(176) %0, double noundef %1) unnamed_addr #4 personality ptr @__gxx_personality_v0 {
  %3 = alloca %"class.std::filesystem::__cxx11::path", align 8
  %4 = alloca %"class.std::filesystem::__cxx11::path", align 8
  %5 = getelementptr inbounds nuw i8, ptr %0, i64 40
  %6 = load i32, ptr %5, align 8, !tbaa !64
  switch i32 %6, label %_ZL17make_periodic_2piPd.exit [
    i32 0, label %7
    i32 5, label %16
    i32 7, label %16
    i32 6, label %32
  ]

7:                                                ; preds = %2
  %8 = fcmp olt double %1, 0.000000e+00
  br i1 %8, label %9, label %_ZL17make_periodic_2piPd.exit

9:                                                ; preds = %7
  call void @llvm.lifetime.start.p0(i64 40, ptr nonnull %3) #21
  call void @_ZNSt10filesystem7__cxx114pathC2IA122_cS1_EERKT_NS1_6formatE(ptr noundef nonnull align 8 dereferenceable(40) %3, ptr noundef nonnull align 1 dereferenceable(122) @.str.9, i8 noundef zeroext 2)
  %10 = getelementptr inbounds nuw i8, ptr %0, i64 172
  %11 = load i32, ptr %10, align 4, !tbaa !191
  %12 = add nsw i32 %11, 1
  invoke void (i32, ptr, i32, ptr, ...) @_Z9gmx_fataliRKNSt10filesystem7__cxx114pathEiPKcz(i32 noundef 0, ptr noundef nonnull align 8 dereferenceable(40) %3, i32 noundef 661, ptr noundef nonnull @.str.32, i32 noundef %12, double noundef %1) #29
          to label %13 unwind label %14

13:                                               ; preds = %9
  unreachable

14:                                               ; preds = %9
  %15 = landingpad { ptr, i32 }
          cleanup
  call void @_ZNSt10filesystem7__cxx114pathD2Ev(ptr noundef nonnull align 8 dereferenceable(40) %3) #21
  call void @llvm.lifetime.end.p0(i64 40, ptr nonnull %3) #21
  br label %37

16:                                               ; preds = %2, %2
  %17 = fcmp olt double %1, 0.000000e+00
  %18 = fcmp ogt double %1, 0x400921FB54442D18
  %or.cond = or i1 %17, %18
  br i1 %or.cond, label %19, label %_ZL17make_periodic_2piPd.exit

19:                                               ; preds = %16
  call void @llvm.lifetime.start.p0(i64 40, ptr nonnull %4) #21
  call void @_ZNSt10filesystem7__cxx114pathC2IA122_cS1_EERKT_NS1_6formatE(ptr noundef nonnull align 8 dereferenceable(40) %4, ptr noundef nonnull align 1 dereferenceable(122) @.str.9, i8 noundef zeroext 2)
  %20 = getelementptr inbounds nuw i8, ptr %0, i64 172
  %21 = load i32, ptr %20, align 4, !tbaa !191
  %22 = add nsw i32 %21, 1
  %23 = load i32, ptr %5, align 8, !tbaa !64
  %24 = sext i32 %23 to i64
  %25 = getelementptr inbounds nuw [9 x i8], ptr @_ZL14sc_isAngleType, i64 0, i64 %24
  %26 = load i8, ptr %25, align 1, !tbaa !72, !range !73, !noundef !74
  %27 = trunc nuw i8 %26 to i1
  %..i = select i1 %27, double 0x404CA5DC1A63C1F8, double 1.000000e+00
  %28 = fmul double %1, %..i
  invoke void (i32, ptr, i32, ptr, ...) @_Z9gmx_fataliRKNSt10filesystem7__cxx114pathEiPKcz(i32 noundef 0, ptr noundef nonnull align 8 dereferenceable(40) %4, i32 noundef 671, ptr noundef nonnull @.str.33, i32 noundef %22, double noundef %28) #29
          to label %29 unwind label %30

29:                                               ; preds = %19
  unreachable

30:                                               ; preds = %19
  %31 = landingpad { ptr, i32 }
          cleanup
  call void @_ZNSt10filesystem7__cxx114pathD2Ev(ptr noundef nonnull align 8 dereferenceable(40) %4) #21
  call void @llvm.lifetime.end.p0(i64 40, ptr nonnull %4) #21
  br label %37

32:                                               ; preds = %2
  %33 = fcmp ult double %1, 0x400921FB54442D18
  br i1 %33, label %34, label %.sink.split.i

34:                                               ; preds = %32
  %35 = fcmp olt double %1, 0xC00921FB54442D18
  br i1 %35, label %.sink.split.i, label %_ZL17make_periodic_2piPd.exit

.sink.split.i:                                    ; preds = %34, %32
  %.sink4.i = phi double [ 0xC01921FB54442D18, %32 ], [ 0x401921FB54442D18, %34 ]
  %36 = fadd double %1, %.sink4.i
  br label %_ZL17make_periodic_2piPd.exit

_ZL17make_periodic_2piPd.exit:                    ; preds = %.sink.split.i, %34, %2, %16, %7
  %.0 = phi double [ %1, %2 ], [ %1, %16 ], [ %1, %7 ], [ %36, %.sink.split.i ], [ %1, %34 ]
  ret double %.0

37:                                               ; preds = %30, %14
  %.pn = phi { ptr, i32 } [ %15, %14 ], [ %31, %30 ]
  resume { ptr, i32 } %.pn
}